target datalayout = "e-m:e-p270:32:32-p271:32:32-p272:64:64-i64:64-i128:128-f80:128-n8:16:32:64-S128"
target triple = "x86_64-pc-linux-gnu"

@zero110 = internal constant [4 x i128] [i128 18446744073709551615, i128 1298074214633706907132628377272319, i128 18446673704965373952, i128 18446744069414584320], align 16
@kPrime = internal constant [4 x i64] [i64 -1, i64 4294967295, i64 0, i64 -4294967295], align 16

; Function Attrs: nounwind uwtable
define internal void @subtract_u64(ptr noundef %0, ptr noundef %1, i64 noundef %2) #0 {
  %4 = alloca ptr, align 8
  %5 = alloca ptr, align 8
  %6 = alloca i64, align 8
  %7 = alloca i128, align 16
  store ptr %0, ptr %4, align 8, !tbaa !27
  store ptr %1, ptr %5, align 8, !tbaa !27
  store i64 %2, ptr %6, align 8, !tbaa !17
  call void @llvm.lifetime.start.p0(i64 16, ptr %7) #6
  %8 = load ptr, ptr %4, align 8, !tbaa !27
  %9 = load i64, ptr %8, align 8, !tbaa !17
  %10 = zext i64 %9 to i128
  store i128 %10, ptr %7, align 16, !tbaa !41
  %11 = load i64, ptr %6, align 8, !tbaa !17
  %12 = zext i64 %11 to i128
  %13 = load i128, ptr %7, align 16, !tbaa !41
  %14 = sub i128 %13, %12
  store i128 %14, ptr %7, align 16, !tbaa !41
  %15 = load i128, ptr %7, align 16, !tbaa !41
  %16 = lshr i128 %15, 64
  %17 = and i128 %16, 1
  %18 = trunc i128 %17 to i64
  %19 = load ptr, ptr %5, align 8, !tbaa !27
  store i64 %18, ptr %19, align 8, !tbaa !17
  %20 = load i128, ptr %7, align 16, !tbaa !41
  %21 = trunc i128 %20 to i64
  %22 = load ptr, ptr %4, align 8, !tbaa !27
  store i64 %21, ptr %22, align 8, !tbaa !17
  call void @llvm.lifetime.end.p0(i64 16, ptr %7) #6
  ret void
}

; Function Attrs: nounwind uwtable
define internal void @felem_shrink(ptr noundef %0, ptr noundef %1) #0 {
  %3 = alloca ptr, align 8
  %4 = alloca ptr, align 8
  %5 = alloca [4 x i128], align 16
  %6 = alloca i64, align 8
  %7 = alloca i64, align 8
  %8 = alloca i64, align 8
  %9 = alloca i64, align 8
  %10 = alloca i64, align 8
  store ptr %0, ptr %3, align 8, !tbaa !27
  store ptr %1, ptr %4, align 8, !tbaa !32
  call void @llvm.lifetime.start.p0(i64 64, ptr %5) #6
  call void @llvm.lifetime.start.p0(i64 8, ptr %6) #6
  call void @llvm.lifetime.start.p0(i64 8, ptr %7) #6
  call void @llvm.lifetime.start.p0(i64 8, ptr %8) #6
  call void @llvm.lifetime.start.p0(i64 8, ptr %9) #6
  call void @llvm.lifetime.start.p0(i64 8, ptr %10) #6
  %11 = load i128, ptr getelementptr inbounds ([4 x i128], ptr @zero110, i64 0, i64 3), align 16, !tbaa !41
  %12 = load ptr, ptr %4, align 8, !tbaa !32
  %13 = getelementptr inbounds i128, ptr %12, i64 3
  %14 = load i128, ptr %13, align 16, !tbaa !41
  %15 = add i128 %11, %14
  %16 = load ptr, ptr %4, align 8, !tbaa !32
  %17 = getelementptr inbounds i128, ptr %16, i64 2
  %18 = load i128, ptr %17, align 16, !tbaa !41
  %19 = lshr i128 %18, 64
  %20 = trunc i128 %19 to i64
  %21 = zext i64 %20 to i128
  %22 = add i128 %15, %21
  %23 = getelementptr inbounds [4 x i128], ptr %5, i64 0, i64 3
  store i128 %22, ptr %23, align 16, !tbaa !41
  %24 = load i128, ptr getelementptr inbounds ([4 x i128], ptr @zero110, i64 0, i64 2), align 16, !tbaa !41
  %25 = load ptr, ptr %4, align 8, !tbaa !32
  %26 = getelementptr inbounds i128, ptr %25, i64 2
  %27 = load i128, ptr %26, align 16, !tbaa !41
  %28 = trunc i128 %27 to i64
  %29 = zext i64 %28 to i128
  %30 = add i128 %24, %29
  %31 = getelementptr inbounds [4 x i128], ptr %5, i64 0, i64 2
  store i128 %30, ptr %31, align 16, !tbaa !41
  %32 = load i128, ptr @zero110, align 16, !tbaa !41
  %33 = load ptr, ptr %4, align 8, !tbaa !32
  %34 = getelementptr inbounds i128, ptr %33, i64 0
  %35 = load i128, ptr %34, align 16, !tbaa !41
  %36 = add i128 %32, %35
  %37 = getelementptr inbounds [4 x i128], ptr %5, i64 0, i64 0
  store i128 %36, ptr %37, align 16, !tbaa !41
  %38 = load i128, ptr getelementptr inbounds ([4 x i128], ptr @zero110, i64 0, i64 1), align 16, !tbaa !41
  %39 = load ptr, ptr %4, align 8, !tbaa !32
  %40 = getelementptr inbounds i128, ptr %39, i64 1
  %41 = load i128, ptr %40, align 16, !tbaa !41
  %42 = add i128 %38, %41
  %43 = getelementptr inbounds [4 x i128], ptr %5, i64 0, i64 1
  store i128 %42, ptr %43, align 16, !tbaa !41
  %44 = getelementptr inbounds [4 x i128], ptr %5, i64 0, i64 3
  %45 = load i128, ptr %44, align 16, !tbaa !41
  %46 = lshr i128 %45, 64
  %47 = trunc i128 %46 to i64
  store i64 %47, ptr %6, align 8, !tbaa !17
  %48 = getelementptr inbounds [4 x i128], ptr %5, i64 0, i64 3
  %49 = load i128, ptr %48, align 16, !tbaa !41
  %50 = trunc i128 %49 to i64
  %51 = zext i64 %50 to i128
  %52 = getelementptr inbounds [4 x i128], ptr %5, i64 0, i64 3
  store i128 %51, ptr %52, align 16, !tbaa !41
  %53 = load i64, ptr %6, align 8, !tbaa !17
  %54 = zext i64 %53 to i128
  %55 = getelementptr inbounds [4 x i128], ptr %5, i64 0, i64 3
  %56 = load i128, ptr %55, align 16, !tbaa !41
  %57 = sub i128 %56, %54
  store i128 %57, ptr %55, align 16, !tbaa !41
  %58 = load i64, ptr %6, align 8, !tbaa !17
  %59 = zext i64 %58 to i128
  %60 = shl i128 %59, 32
  %61 = getelementptr inbounds [4 x i128], ptr %5, i64 0, i64 3
  %62 = load i128, ptr %61, align 16, !tbaa !41
  %63 = add i128 %62, %60
  store i128 %63, ptr %61, align 16, !tbaa !41
  %64 = load i64, ptr %6, align 8, !tbaa !17
  store i64 %64, ptr %7, align 8, !tbaa !17
  %65 = getelementptr inbounds [4 x i128], ptr %5, i64 0, i64 3
  %66 = load i128, ptr %65, align 16, !tbaa !41
  %67 = lshr i128 %66, 64
  %68 = trunc i128 %67 to i64
  store i64 %68, ptr %6, align 8, !tbaa !17
  %69 = load i64, ptr %6, align 8, !tbaa !17
  %70 = load i64, ptr %7, align 8, !tbaa !17
  %71 = add i64 %70, %69
  store i64 %71, ptr %7, align 8, !tbaa !17
  %72 = getelementptr inbounds [4 x i128], ptr %5, i64 0, i64 3
  %73 = load i128, ptr %72, align 16, !tbaa !41
  %74 = trunc i128 %73 to i64
  %75 = zext i64 %74 to i128
  %76 = getelementptr inbounds [4 x i128], ptr %5, i64 0, i64 3
  store i128 %75, ptr %76, align 16, !tbaa !41
  %77 = load i64, ptr %6, align 8, !tbaa !17
  %78 = zext i64 %77 to i128
  %79 = getelementptr inbounds [4 x i128], ptr %5, i64 0, i64 3
  %80 = load i128, ptr %79, align 16, !tbaa !41
  %81 = sub i128 %80, %78
  store i128 %81, ptr %79, align 16, !tbaa !41
  %82 = load i64, ptr %6, align 8, !tbaa !17
  %83 = zext i64 %82 to i128
  %84 = shl i128 %83, 32
  %85 = getelementptr inbounds [4 x i128], ptr %5, i64 0, i64 3
  %86 = load i128, ptr %85, align 16, !tbaa !41
  %87 = add i128 %86, %84
  store i128 %87, ptr %85, align 16, !tbaa !41
  %88 = load i64, ptr %7, align 8, !tbaa !17
  %89 = zext i64 %88 to i128
  %90 = getelementptr inbounds [4 x i128], ptr %5, i64 0, i64 0
  %91 = load i128, ptr %90, align 16, !tbaa !41
  %92 = add i128 %91, %89
  store i128 %92, ptr %90, align 16, !tbaa !41
  %93 = load i64, ptr %7, align 8, !tbaa !17
  %94 = zext i64 %93 to i128
  %95 = shl i128 %94, 32
  %96 = getelementptr inbounds [4 x i128], ptr %5, i64 0, i64 1
  %97 = load i128, ptr %96, align 16, !tbaa !41
  %98 = sub i128 %97, %95
  store i128 %98, ptr %96, align 16, !tbaa !41
  %99 = getelementptr inbounds [4 x i128], ptr %5, i64 0, i64 3
  %100 = load i128, ptr %99, align 16, !tbaa !41
  %101 = lshr i128 %100, 64
  %102 = trunc i128 %101 to i64
  store i64 %102, ptr %9, align 8, !tbaa !17
  %103 = load i64, ptr %9, align 8, !tbaa !17
  %104 = sub nsw i64 %103, 1
  %105 = xor i64 %104, -1
  store i64 %105, ptr %9, align 8, !tbaa !17
  %106 = getelementptr inbounds [4 x i128], ptr %5, i64 0, i64 3
  %107 = load i128, ptr %106, align 16, !tbaa !41
  %108 = trunc i128 %107 to i64
  store i64 %108, ptr %10, align 8, !tbaa !17
  %109 = load i64, ptr %10, align 8, !tbaa !17
  %110 = ashr i64 %109, 63
  store i64 %110, ptr %8, align 8, !tbaa !17
  %111 = load i64, ptr %10, align 8, !tbaa !17
  %112 = and i64 %111, 9223372036854775807
  store i64 %112, ptr %10, align 8, !tbaa !17
  %113 = load i64, ptr %10, align 8, !tbaa !17
  %114 = sub i64 %113, 9223372032559808513
  store i64 %114, ptr %10, align 8, !tbaa !17
  %115 = load i64, ptr %10, align 8, !tbaa !17
  %116 = xor i64 %115, -1
  store i64 %116, ptr %10, align 8, !tbaa !17
  %117 = load i64, ptr %10, align 8, !tbaa !17
  %118 = ashr i64 %117, 63
  store i64 %118, ptr %10, align 8, !tbaa !17
  %119 = load i64, ptr %8, align 8, !tbaa !17
  %120 = load i64, ptr %10, align 8, !tbaa !17
  %121 = and i64 %119, %120
  %122 = load i64, ptr %9, align 8, !tbaa !17
  %123 = or i64 %121, %122
  store i64 %123, ptr %8, align 8, !tbaa !17
  %124 = load i64, ptr %8, align 8, !tbaa !17
  %125 = load i64, ptr @kPrime, align 16, !tbaa !17
  %126 = and i64 %124, %125
  %127 = zext i64 %126 to i128
  %128 = getelementptr inbounds [4 x i128], ptr %5, i64 0, i64 0
  %129 = load i128, ptr %128, align 16, !tbaa !41
  %130 = sub i128 %129, %127
  store i128 %130, ptr %128, align 16, !tbaa !41
  %131 = load i64, ptr %8, align 8, !tbaa !17
  %132 = load i64, ptr getelementptr inbounds ([4 x i64], ptr @kPrime, i64 0, i64 1), align 8, !tbaa !17
  %133 = and i64 %131, %132
  %134 = zext i64 %133 to i128
  %135 = getelementptr inbounds [4 x i128], ptr %5, i64 0, i64 1
  %136 = load i128, ptr %135, align 16, !tbaa !41
  %137 = sub i128 %136, %134
  store i128 %137, ptr %135, align 16, !tbaa !41
  %138 = load i64, ptr %8, align 8, !tbaa !17
  %139 = load i64, ptr getelementptr inbounds ([4 x i64], ptr @kPrime, i64 0, i64 3), align 8, !tbaa !17
  %140 = and i64 %138, %139
  %141 = zext i64 %140 to i128
  %142 = getelementptr inbounds [4 x i128], ptr %5, i64 0, i64 3
  %143 = load i128, ptr %142, align 16, !tbaa !41
  %144 = sub i128 %143, %141
  store i128 %144, ptr %142, align 16, !tbaa !41
  %145 = getelementptr inbounds [4 x i128], ptr %5, i64 0, i64 0
  %146 = load i128, ptr %145, align 16, !tbaa !41
  %147 = lshr i128 %146, 64
  %148 = trunc i128 %147 to i64
  %149 = zext i64 %148 to i128
  %150 = getelementptr inbounds [4 x i128], ptr %5, i64 0, i64 1
  %151 = load i128, ptr %150, align 16, !tbaa !41
  %152 = add i128 %151, %149
  store i128 %152, ptr %150, align 16, !tbaa !41
  %153 = getelementptr inbounds [4 x i128], ptr %5, i64 0, i64 0
  %154 = load i128, ptr %153, align 16, !tbaa !41
  %155 = trunc i128 %154 to i64
  %156 = zext i64 %155 to i128
  %157 = getelementptr inbounds [4 x i128], ptr %5, i64 0, i64 0
  store i128 %156, ptr %157, align 16, !tbaa !41
  %158 = getelementptr inbounds [4 x i128], ptr %5, i64 0, i64 1
  %159 = load i128, ptr %158, align 16, !tbaa !41
  %160 = lshr i128 %159, 64
  %161 = trunc i128 %160 to i64
  %162 = zext i64 %161 to i128
  %163 = getelementptr inbounds [4 x i128], ptr %5, i64 0, i64 2
  %164 = load i128, ptr %163, align 16, !tbaa !41
  %165 = add i128 %164, %162
  store i128 %165, ptr %163, align 16, !tbaa !41
  %166 = getelementptr inbounds [4 x i128], ptr %5, i64 0, i64 1
  %167 = load i128, ptr %166, align 16, !tbaa !41
  %168 = trunc i128 %167 to i64
  %169 = zext i64 %168 to i128
  %170 = getelementptr inbounds [4 x i128], ptr %5, i64 0, i64 1
  store i128 %169, ptr %170, align 16, !tbaa !41
  %171 = getelementptr inbounds [4 x i128], ptr %5, i64 0, i64 2
  %172 = load i128, ptr %171, align 16, !tbaa !41
  %173 = lshr i128 %172, 64
  %174 = trunc i128 %173 to i64
  %175 = zext i64 %174 to i128
  %176 = getelementptr inbounds [4 x i128], ptr %5, i64 0, i64 3
  %177 = load i128, ptr %176, align 16, !tbaa !41
  %178 = add i128 %177, %175
  store i128 %178, ptr %176, align 16, !tbaa !41
  %179 = getelementptr inbounds [4 x i128], ptr %5, i64 0, i64 2
  %180 = load i128, ptr %179, align 16, !tbaa !41
  %181 = trunc i128 %180 to i64
  %182 = zext i64 %181 to i128
  %183 = getelementptr inbounds [4 x i128], ptr %5, i64 0, i64 2
  store i128 %182, ptr %183, align 16, !tbaa !41
  %184 = getelementptr inbounds [4 x i128], ptr %5, i64 0, i64 0
  %185 = load i128, ptr %184, align 16, !tbaa !41
  %186 = trunc i128 %185 to i64
  %187 = load ptr, ptr %3, align 8, !tbaa !27
  %188 = getelementptr inbounds i64, ptr %187, i64 0
  store i64 %186, ptr %188, align 8, !tbaa !17
  %189 = getelementptr inbounds [4 x i128], ptr %5, i64 0, i64 1
  %190 = load i128, ptr %189, align 16, !tbaa !41
  %191 = trunc i128 %190 to i64
  %192 = load ptr, ptr %3, align 8, !tbaa !27
  %193 = getelementptr inbounds i64, ptr %192, i64 1
  store i64 %191, ptr %193, align 8, !tbaa !17
  %194 = getelementptr inbounds [4 x i128], ptr %5, i64 0, i64 2
  %195 = load i128, ptr %194, align 16, !tbaa !41
  %196 = trunc i128 %195 to i64
  %197 = load ptr, ptr %3, align 8, !tbaa !27
  %198 = getelementptr inbounds i64, ptr %197, i64 2
  store i64 %196, ptr %198, align 8, !tbaa !17
  %199 = getelementptr inbounds [4 x i128], ptr %5, i64 0, i64 3
  %200 = load i128, ptr %199, align 16, !tbaa !41
  %201 = trunc i128 %200 to i64
  %202 = load ptr, ptr %3, align 8, !tbaa !27
  %203 = getelementptr inbounds i64, ptr %202, i64 3
  store i64 %201, ptr %203, align 8, !tbaa !17
  call void @llvm.lifetime.end.p0(i64 8, ptr %10) #6
  call void @llvm.lifetime.end.p0(i64 8, ptr %9) #6
  call void @llvm.lifetime.end.p0(i64 8, ptr %8) #6
  call void @llvm.lifetime.end.p0(i64 8, ptr %7) #6
  call void @llvm.lifetime.end.p0(i64 8, ptr %6) #6
  call void @llvm.lifetime.end.p0(i64 64, ptr %5) #6
  ret void
}

; Function Attrs: nounwind uwtable
define internal void @felem_contract(ptr noundef %0, ptr noundef %1) #0 {
  %3 = alloca ptr, align 8
  %4 = alloca ptr, align 8
  %5 = alloca i64, align 8
  %6 = alloca i64, align 8
  %7 = alloca i64, align 8
  %8 = alloca i64, align 8
  %9 = alloca i128, align 16
  %10 = alloca i64, align 8
  store ptr %0, ptr %3, align 8, !tbaa !27
  store ptr %1, ptr %4, align 8, !tbaa !32
  call void @llvm.lifetime.start.p0(i64 8, ptr %5) #6
  store i64 0, ptr %5, align 8, !tbaa !17
  call void @llvm.lifetime.start.p0(i64 8, ptr %6) #6
  store i64 0, ptr %6, align 8, !tbaa !17
  %11 = load ptr, ptr %3, align 8, !tbaa !27
  %12 = load ptr, ptr %4, align 8, !tbaa !32
  call void @felem_shrink(ptr noundef %11, ptr noundef %12)
  %13 = load i64, ptr %5, align 8, !tbaa !17
  %14 = add i64 %13, -1
  store i64 %14, ptr %5, align 8, !tbaa !17
  call void @llvm.lifetime.start.p0(i64 8, ptr %7) #6
  store i64 3, ptr %7, align 8, !tbaa !17
  br label %15

15:                                               ; preds = %75, %2
  %16 = load i64, ptr %7, align 8, !tbaa !17
  %17 = icmp ult i64 %16, 4
  br i1 %17, label %18, label %78

18:                                               ; preds = %15
  call void @llvm.lifetime.start.p0(i64 8, ptr %8) #6
  call void @llvm.lifetime.start.p0(i64 16, ptr %9) #6
  %19 = load i64, ptr %7, align 8, !tbaa !17
  %20 = getelementptr inbounds nuw [4 x i64], ptr @kPrime, i64 0, i64 %19
  %21 = load i64, ptr %20, align 8, !tbaa !17
  %22 = zext i64 %21 to i128
  %23 = load ptr, ptr %3, align 8, !tbaa !27
  %24 = load i64, ptr %7, align 8, !tbaa !17
  %25 = getelementptr inbounds nuw i64, ptr %23, i64 %24
  %26 = load i64, ptr %25, align 8, !tbaa !17
  %27 = zext i64 %26 to i128
  %28 = sub i128 %22, %27
  store i128 %28, ptr %9, align 16, !tbaa !41
  %29 = load i64, ptr %5, align 8, !tbaa !17
  %30 = load i128, ptr %9, align 16, !tbaa !41
  %31 = lshr i128 %30, 64
  %32 = trunc i128 %31 to i64
  %33 = and i64 %29, %32
  %34 = load i64, ptr %6, align 8, !tbaa !17
  %35 = or i64 %34, %33
  store i64 %35, ptr %6, align 8, !tbaa !17
  %36 = load i64, ptr %7, align 8, !tbaa !17
  %37 = getelementptr inbounds nuw [4 x i64], ptr @kPrime, i64 0, i64 %36
  %38 = load i64, ptr %37, align 8, !tbaa !17
  %39 = load ptr, ptr %3, align 8, !tbaa !27
  %40 = load i64, ptr %7, align 8, !tbaa !17
  %41 = getelementptr inbounds nuw i64, ptr %39, i64 %40
  %42 = load i64, ptr %41, align 8, !tbaa !17
  %43 = xor i64 %38, %42
  store i64 %43, ptr %8, align 8, !tbaa !17
  %44 = load i64, ptr %8, align 8, !tbaa !17
  %45 = add i64 %44, -1
  store i64 %45, ptr %8, align 8, !tbaa !17
  %46 = load i64, ptr %8, align 8, !tbaa !17
  %47 = shl i64 %46, 32
  %48 = load i64, ptr %8, align 8, !tbaa !17
  %49 = and i64 %48, %47
  store i64 %49, ptr %8, align 8, !tbaa !17
  %50 = load i64, ptr %8, align 8, !tbaa !17
  %51 = shl i64 %50, 16
  %52 = load i64, ptr %8, align 8, !tbaa !17
  %53 = and i64 %52, %51
  store i64 %53, ptr %8, align 8, !tbaa !17
  %54 = load i64, ptr %8, align 8, !tbaa !17
  %55 = shl i64 %54, 8
  %56 = load i64, ptr %8, align 8, !tbaa !17
  %57 = and i64 %56, %55
  store i64 %57, ptr %8, align 8, !tbaa !17
  %58 = load i64, ptr %8, align 8, !tbaa !17
  %59 = shl i64 %58, 4
  %60 = load i64, ptr %8, align 8, !tbaa !17
  %61 = and i64 %60, %59
  store i64 %61, ptr %8, align 8, !tbaa !17
  %62 = load i64, ptr %8, align 8, !tbaa !17
  %63 = shl i64 %62, 2
  %64 = load i64, ptr %8, align 8, !tbaa !17
  %65 = and i64 %64, %63
  store i64 %65, ptr %8, align 8, !tbaa !17
  %66 = load i64, ptr %8, align 8, !tbaa !17
  %67 = shl i64 %66, 1
  %68 = load i64, ptr %8, align 8, !tbaa !17
  %69 = and i64 %68, %67
  store i64 %69, ptr %8, align 8, !tbaa !17
  %70 = load i64, ptr %8, align 8, !tbaa !17
  %71 = ashr i64 %70, 63
  store i64 %71, ptr %8, align 8, !tbaa !17
  %72 = load i64, ptr %8, align 8, !tbaa !17
  %73 = load i64, ptr %5, align 8, !tbaa !17
  %74 = and i64 %73, %72
  store i64 %74, ptr %5, align 8, !tbaa !17
  call void @llvm.lifetime.end.p0(i64 16, ptr %9) #6
  call void @llvm.lifetime.end.p0(i64 8, ptr %8) #6
  br label %75

75:                                               ; preds = %18
  %76 = load i64, ptr %7, align 8, !tbaa !17
  %77 = add i64 %76, -1
  store i64 %77, ptr %7, align 8, !tbaa !17
  br label %15, !llvm.loop !43

78:                                               ; preds = %15
  %79 = load i64, ptr %5, align 8, !tbaa !17
  %80 = load i64, ptr %6, align 8, !tbaa !17
  %81 = or i64 %80, %79
  store i64 %81, ptr %6, align 8, !tbaa !17
  call void @llvm.lifetime.start.p0(i64 8, ptr %10) #6
  %82 = load ptr, ptr %3, align 8, !tbaa !27
  %83 = getelementptr inbounds i64, ptr %82, i64 0
  %84 = load i64, ptr %6, align 8, !tbaa !17
  %85 = load i64, ptr @kPrime, align 16, !tbaa !17
  %86 = and i64 %84, %85
  call void @subtract_u64(ptr noundef %83, ptr noundef %10, i64 noundef %86)
  %87 = load ptr, ptr %3, align 8, !tbaa !27
  %88 = getelementptr inbounds i64, ptr %87, i64 1
  %89 = load i64, ptr %10, align 8, !tbaa !17
  call void @subtract_u64(ptr noundef %88, ptr noundef %10, i64 noundef %89)
  %90 = load ptr, ptr %3, align 8, !tbaa !27
  %91 = getelementptr inbounds i64, ptr %90, i64 2
  %92 = load i64, ptr %10, align 8, !tbaa !17
  call void @subtract_u64(ptr noundef %91, ptr noundef %10, i64 noundef %92)
  %93 = load ptr, ptr %3, align 8, !tbaa !27
  %94 = getelementptr inbounds i64, ptr %93, i64 3
  %95 = load i64, ptr %10, align 8, !tbaa !17
  call void @subtract_u64(ptr noundef %94, ptr noundef %10, i64 noundef %95)
  %96 = load ptr, ptr %3, align 8, !tbaa !27
  %97 = getelementptr inbounds i64, ptr %96, i64 1
  %98 = load i64, ptr %6, align 8, !tbaa !17
  %99 = load i64, ptr getelementptr inbounds ([4 x i64], ptr @kPrime, i64 0, i64 1), align 8, !tbaa !17
  %100 = and i64 %98, %99
  call void @subtract_u64(ptr noundef %97, ptr noundef %10, i64 noundef %100)
  %101 = load ptr, ptr %3, align 8, !tbaa !27
  %102 = getelementptr inbounds i64, ptr %101, i64 2
  %103 = load i64, ptr %10, align 8, !tbaa !17
  call void @subtract_u64(ptr noundef %102, ptr noundef %10, i64 noundef %103)
  %104 = load ptr, ptr %3, align 8, !tbaa !27
  %105 = getelementptr inbounds i64, ptr %104, i64 3
  %106 = load i64, ptr %10, align 8, !tbaa !17
  call void @subtract_u64(ptr noundef %105, ptr noundef %10, i64 noundef %106)
  %107 = load ptr, ptr %3, align 8, !tbaa !27
  %108 = getelementptr inbounds i64, ptr %107, i64 2
  %109 = load i64, ptr %6, align 8, !tbaa !17
  %110 = load i64, ptr getelementptr inbounds ([4 x i64], ptr @kPrime, i64 0, i64 2), align 16, !tbaa !17
  %111 = and i64 %109, %110
  call void @subtract_u64(ptr noundef %108, ptr noundef %10, i64 noundef %111)
  %112 = load ptr, ptr %3, align 8, !tbaa !27
  %113 = getelementptr inbounds i64, ptr %112, i64 3
  %114 = load i64, ptr %10, align 8, !tbaa !17
  call void @subtract_u64(ptr noundef %113, ptr noundef %10, i64 noundef %114)
  %115 = load ptr, ptr %3, align 8, !tbaa !27
  %116 = getelementptr inbounds i64, ptr %115, i64 3
  %117 = load i64, ptr %6, align 8, !tbaa !17
  %118 = load i64, ptr getelementptr inbounds ([4 x i64], ptr @kPrime, i64 0, i64 3), align 8, !tbaa !17
  %119 = and i64 %117, %118
  call void @subtract_u64(ptr noundef %116, ptr noundef %10, i64 noundef %119)
  call void @llvm.lifetime.end.p0(i64 8, ptr %10) #6
  call void @llvm.lifetime.end.p0(i64 8, ptr %7) #6
  call void @llvm.lifetime.end.p0(i64 8, ptr %6) #6
  call void @llvm.lifetime.end.p0(i64 8, ptr %5) #6
  ret void
}