; Function Attrs: nofree norecurse nosync nounwind memory(argmem: readwrite) uwtable
define internal fastcc void @felem_contract(ptr noundef nonnull captures(none) initializes((0, 32)) %0, ptr noundef nonnull readonly captures(none) %1) unnamed_addr #5 {
  %3 = getelementptr inbounds nuw i8, ptr %1, i64 48
  %4 = load i128, ptr %3, align 16, !tbaa !6
  %5 = add i128 %4, 18446744069414584320
  %6 = getelementptr inbounds nuw i8, ptr %1, i64 32
  %7 = load i128, ptr %6, align 16, !tbaa !6
  %8 = lshr i128 %7, 64
  %9 = add i128 %5, %8
  %10 = and i128 %7, 18446744073709551615
  %11 = add nuw nsw i128 %10, 18446673704965373952
  %12 = load i128, ptr %1, align 16, !tbaa !6
  %13 = add i128 %12, 18446744073709551615
  %14 = getelementptr inbounds nuw i8, ptr %1, i64 16
  %15 = load i128, ptr %14, align 16, !tbaa !6
  %16 = lshr i128 %9, 64
  %17 = trunc nuw i128 %16 to i64
  %18 = and i128 %9, 18446744073709551615
  %19 = sub nsw i128 %18, %16
  %20 = shl nuw nsw i128 %16, 32
  %21 = add nsw i128 %19, %20
  %22 = lshr i128 %21, 64
  %23 = trunc nuw i128 %22 to i64
  %24 = add i64 %23, %17
  %25 = and i128 %21, 18446744073709551615
  %26 = sub nsw i128 %25, %22
  %27 = shl nuw nsw i128 %22, 32
  %28 = add nsw i128 %26, %27
  %29 = zext i64 %24 to i128
  %30 = add i128 %13, %29
  %31 = lshr i128 %28, 64
  %32 = trunc nuw i128 %31 to i64
  %33 = sub i64 0, %32
  %34 = trunc i128 %28 to i64
  %35 = ashr i64 %34, 63
  %36 = and i64 %34, 9223372036854775807
  %37 = icmp samesign ugt i64 %36, 9223372032559808512
  %38 = select i1 %37, i64 %35, i64 0
  %39 = or i64 %38, %33
  %40 = zext i64 %39 to i128
  %41 = sub i128 %30, %40
  %42 = and i64 %39, 4294967295
  %43 = zext nneg i64 %42 to i128
  %44 = and i64 %39, -4294967295
  %45 = zext i64 %44 to i128
  %46 = sub nsw i128 %28, %45
  %47 = lshr i128 %41, 64
  %.neg54 = add i128 %15, 1298074214633706907132628377272319
  %48 = shl nuw nsw i128 %29, 32
  %49 = or disjoint i128 %48, %43
  %50 = sub i128 %.neg54, %49
  %51 = add i128 %50, %47
  %52 = trunc i128 %41 to i64
  %53 = lshr i128 %51, 64
  %54 = add nuw nsw i128 %11, %53
  %55 = trunc i128 %51 to i64
  %56 = lshr i128 %54, 64
  %57 = add nsw i128 %56, %46
  %58 = trunc i128 %54 to i64
  store i64 %52, ptr %0, align 8, !tbaa !18
  %59 = getelementptr inbounds nuw i8, ptr %0, i64 8
  store i64 %55, ptr %59, align 8, !tbaa !18
  %60 = getelementptr inbounds nuw i8, ptr %0, i64 16
  store i64 %58, ptr %60, align 8, !tbaa !18
  %61 = trunc i128 %57 to i64
  %62 = getelementptr inbounds nuw i8, ptr %0, i64 24
  store i64 %61, ptr %62, align 8, !tbaa !18
  br label %63

63:                                               ; preds = %2, %63
  %.057 = phi i64 [ -1, %2 ], [ %89, %63 ]
  %.04556 = phi i64 [ 0, %2 ], [ %74, %63 ]
  %.04655 = phi i64 [ 3, %2 ], [ %90, %63 ]
  %64 = getelementptr inbounds nuw [4 x i64], ptr @kPrime, i64 0, i64 %.04655
  %65 = load i64, ptr %64, align 8, !tbaa !18
  %66 = zext i64 %65 to i128
  %67 = getelementptr inbounds nuw i64, ptr %0, i64 %.04655
  %68 = load i64, ptr %67, align 8, !tbaa !18
  %69 = zext i64 %68 to i128
  %70 = sub nsw i128 %66, %69
  %71 = lshr i128 %70, 64
  %72 = trunc nuw i128 %71 to i64
  %73 = and i64 %.057, %72
  %74 = or i64 %73, %.04556
  %75 = xor i64 %68, %65
  %76 = add i64 %75, -1
  %77 = shl i64 %76, 32
  %78 = and i64 %77, %76
  %79 = shl i64 %78, 16
  %80 = and i64 %79, %78
  %81 = shl i64 %80, 8
  %82 = and i64 %81, %80
  %83 = shl i64 %82, 4
  %84 = and i64 %83, %82
  %85 = shl i64 %84, 2
  %86 = and i64 %85, %84
  %87 = shl i64 %86, 1
  %88 = and i64 %87, %86
  %isneg = icmp slt i64 %88, 0
  %89 = select i1 %isneg, i64 %.057, i64 0
  %90 = add nsw i64 %.04655, -1
  %91 = icmp ult i64 %90, 4
  br i1 %91, label %63, label %92, !llvm.loop !26

92:                                               ; preds = %63
  %93 = or i64 %89, %74
  %94 = and i128 %41, 18446744073709551615
  %95 = zext i64 %93 to i128
  %96 = sub nsw i128 %94, %95
  %97 = trunc i128 %96 to i64
  store i64 %97, ptr %0, align 8, !tbaa !18
  %98 = and i128 %51, 18446744073709551615
  %99 = ashr i128 %96, 64
  %100 = add nsw i128 %99, %98
  %101 = and i128 %54, 18446744073709551615
  %102 = ashr i128 %100, 64
  %103 = add nsw i128 %102, %101
  %104 = lshr i128 %103, 64
  %105 = add nsw i128 %104, %57
  %106 = and i64 %93, 4294967295
  %107 = and i128 %100, 18446744073709551615
  %108 = zext nneg i64 %106 to i128
  %109 = sub nsw i128 %107, %108
  %110 = trunc i128 %109 to i64
  store i64 %110, ptr %59, align 8, !tbaa !18
  %111 = and i128 %103, 18446744073709551615
  %112 = ashr i128 %109, 64
  %113 = add nsw i128 %112, %111
  %114 = trunc i128 %113 to i64
  %115 = lshr i128 %113, 64
  %116 = add nsw i128 %115, %105
  %117 = trunc i128 %116 to i64
  store i64 %114, ptr %60, align 8, !tbaa !18
  %118 = and i64 %93, -4294967295
  %119 = sub i64 %117, %118
  store i64 %119, ptr %62, align 8, !tbaa !18
  ret void
}